target datalayout = "e-m:e-p270:32:32-p271:32:32-p272:64:64-i64:64-i128:128-f80:128-n8:16:32:64-S128"
target triple = "x86_64-pc-linux-gnu"

%struct._GTypeInstance = type { ptr }
%struct._GTypeClass = type { i64 }
%struct._GdkWindowAttr = type { ptr, i32, i32, i32, i32, i32, i32, ptr, i32, ptr, ptr, ptr, i32, i32 }
%struct._cairo_rectangle_int = type { i32, i32, i32, i32 }

@_ZZ22cvImageWidget_get_typevE10image_type = internal global i64 0, align 8
@.str.2 = private unnamed_addr constant [14 x i8] c"CvImageWidget\00", align 1
@.str.20 = private unnamed_addr constant [15 x i8] c"widget != NULL\00", align 1
@.str.21 = private unnamed_addr constant [28 x i8] c"CV_IS_IMAGE_WIDGET (widget)\00", align 1
@__PRETTY_FUNCTION__._ZL21cvImageWidget_realizeP10_GtkWidget = private unnamed_addr constant [40 x i8] c"void cvImageWidget_realize(GtkWidget *)\00", align 1

; Function Attrs: mustprogress uwtable
define hidden noundef i64 @_Z22cvImageWidget_get_typev() #4 {
  %1 = load i64, ptr @_ZZ22cvImageWidget_get_typevE10image_type, align 8, !tbaa !21
  %2 = icmp ne i64 %1, 0
  br i1 %2, label %6, label %3

3:                                                ; preds = %0
  %4 = call i64 @gtk_widget_get_type() #28
  %5 = call i64 @g_type_register_static_simple(i64 noundef %4, ptr noundef @.str.2, i32 noundef 824, ptr noundef @_ZL24cvImageWidget_class_initPvS_, i32 noundef 56, ptr noundef @_ZL18cvImageWidget_initP14_GTypeInstancePv, i32 noundef 0)
  store i64 %5, ptr @_ZZ22cvImageWidget_get_typevE10image_type, align 8, !tbaa !21
  br label %6

6:                                                ; preds = %3, %0
  %7 = load i64, ptr @_ZZ22cvImageWidget_get_typevE10image_type, align 8, !tbaa !21
  ret i64 %7
}

; Function Attrs: mustprogress uwtable
define internal void @_ZL21cvImageWidget_realizeP10_GtkWidget(ptr noundef %0) #4 {
  %2 = alloca ptr, align 8
  %3 = alloca %struct._GdkWindowAttr, align 8
  %4 = alloca i32, align 4
  %5 = alloca %struct._cairo_rectangle_int, align 4
  %6 = alloca i32, align 4
  %7 = alloca i32, align 4
  %8 = alloca i32, align 4
  %9 = alloca i32, align 4
  %10 = alloca ptr, align 8
  %11 = alloca i64, align 8
  %12 = alloca i32, align 4
  %13 = alloca i32, align 4
  %14 = alloca i32, align 4
  store ptr %0, ptr %2, align 8, !tbaa !158
  call void @llvm.lifetime.start.p0(i64 80, ptr %3) #3
  call void @llvm.lifetime.start.p0(i64 4, ptr %4) #3
  call void @llvm.lifetime.start.p0(i64 16, ptr %5) #3
  %15 = load ptr, ptr %2, align 8, !tbaa !158
  call void @gtk_widget_get_allocation(ptr noundef %15, ptr noundef %5)
  br label %16

16:                                               ; preds = %1
  call void @llvm.lifetime.start.p0(i64 4, ptr %6) #3
  %17 = load ptr, ptr %2, align 8, !tbaa !158
  %18 = icmp ne ptr %17, null
  br i1 %18, label %19, label %20

19:                                               ; preds = %16
  store i32 1, ptr %6, align 4, !tbaa !3
  br label %21

20:                                               ; preds = %16
  store i32 0, ptr %6, align 4, !tbaa !3
  br label %21

21:                                               ; preds = %20, %19
  %22 = load i32, ptr %6, align 4, !tbaa !3
  store i32 %22, ptr %7, align 4, !tbaa !3
  call void @llvm.lifetime.end.p0(i64 4, ptr %6) #3
  %23 = load i32, ptr %7, align 4, !tbaa !3
  %24 = sext i32 %23 to i64
  %25 = call i64 @llvm.expect.i64(i64 %24, i64 1)
  %26 = icmp ne i64 %25, 0
  br i1 %26, label %27, label %28

27:                                               ; preds = %21
  br label %29

28:                                               ; preds = %21
  call void @g_return_if_fail_warning(ptr noundef null, ptr noundef @__PRETTY_FUNCTION__._ZL21cvImageWidget_realizeP10_GtkWidget, ptr noundef @.str.20)
  store i32 1, ptr %8, align 4
  br label %117

29:                                               ; preds = %27
  br label %30

30:                                               ; preds = %29
  br label %31

31:                                               ; preds = %30
  br label %32

32:                                               ; preds = %31
  call void @llvm.lifetime.start.p0(i64 4, ptr %9) #3
  call void @llvm.lifetime.start.p0(i64 8, ptr %10) #3
  %33 = load ptr, ptr %2, align 8, !tbaa !158
  store ptr %33, ptr %10, align 8, !tbaa !49
  call void @llvm.lifetime.start.p0(i64 8, ptr %11) #3
  %34 = call noundef i64 @_Z22cvImageWidget_get_typev()
  store i64 %34, ptr %11, align 8, !tbaa !21
  call void @llvm.lifetime.start.p0(i64 4, ptr %12) #3
  %35 = load ptr, ptr %10, align 8, !tbaa !49
  %36 = icmp ne ptr %35, null
  br i1 %36, label %38, label %37

37:                                               ; preds = %32
  store i32 0, ptr %12, align 4, !tbaa !3
  br label %57

38:                                               ; preds = %32
  %39 = load ptr, ptr %10, align 8, !tbaa !49
  %40 = getelementptr inbounds nuw %struct._GTypeInstance, ptr %39, i32 0, i32 0
  %41 = load ptr, ptr %40, align 8, !tbaa !183
  %42 = icmp ne ptr %41, null
  br i1 %42, label %43, label %52

43:                                               ; preds = %38
  %44 = load ptr, ptr %10, align 8, !tbaa !49
  %45 = getelementptr inbounds nuw %struct._GTypeInstance, ptr %44, i32 0, i32 0
  %46 = load ptr, ptr %45, align 8, !tbaa !183
  %47 = getelementptr inbounds nuw %struct._GTypeClass, ptr %46, i32 0, i32 0
  %48 = load i64, ptr %47, align 8, !tbaa !184
  %49 = load i64, ptr %11, align 8, !tbaa !21
  %50 = icmp eq i64 %48, %49
  br i1 %50, label %51, label %52

51:                                               ; preds = %43
  store i32 1, ptr %12, align 4, !tbaa !3
  br label %56

52:                                               ; preds = %43, %38
  %53 = load ptr, ptr %10, align 8, !tbaa !49
  %54 = load i64, ptr %11, align 8, !tbaa !21
  %55 = call i32 @g_type_check_instance_is_a(ptr noundef %53, i64 noundef %54) #30
  store i32 %55, ptr %12, align 4, !tbaa !3
  br label %56

56:                                               ; preds = %52, %51
  br label %57

57:                                               ; preds = %56, %37
  %58 = load i32, ptr %12, align 4, !tbaa !3
  store i32 %58, ptr %13, align 4, !tbaa !3
  call void @llvm.lifetime.end.p0(i64 4, ptr %12) #3
  call void @llvm.lifetime.end.p0(i64 8, ptr %11) #3
  call void @llvm.lifetime.end.p0(i64 8, ptr %10) #3
  %59 = load i32, ptr %13, align 4, !tbaa !3
  %60 = icmp ne i32 %59, 0
  br i1 %60, label %61, label %62

61:                                               ; preds = %57
  store i32 1, ptr %9, align 4, !tbaa !3
  br label %63

62:                                               ; preds = %57
  store i32 0, ptr %9, align 4, !tbaa !3
  br label %63

63:                                               ; preds = %62, %61
  %64 = load i32, ptr %9, align 4, !tbaa !3
  store i32 %64, ptr %14, align 4, !tbaa !3
  call void @llvm.lifetime.end.p0(i64 4, ptr %9) #3
  %65 = load i32, ptr %14, align 4, !tbaa !3
  %66 = sext i32 %65 to i64
  %67 = call i64 @llvm.expect.i64(i64 %66, i64 1)
  %68 = icmp ne i64 %67, 0
  br i1 %68, label %69, label %70

69:                                               ; preds = %63
  br label %71

70:                                               ; preds = %63
  call void @g_return_if_fail_warning(ptr noundef null, ptr noundef @__PRETTY_FUNCTION__._ZL21cvImageWidget_realizeP10_GtkWidget, ptr noundef @.str.21)
  store i32 1, ptr %8, align 4
  br label %117

71:                                               ; preds = %69
  br label %72

72:                                               ; preds = %71
  br label %73

73:                                               ; preds = %72
  %74 = load ptr, ptr %2, align 8, !tbaa !158
  call void @gtk_widget_set_realized(ptr noundef %74, i32 noundef 1)
  %75 = getelementptr inbounds nuw %struct._cairo_rectangle_int, ptr %5, i32 0, i32 0
  %76 = load i32, ptr %75, align 4, !tbaa !185
  %77 = getelementptr inbounds nuw %struct._GdkWindowAttr, ptr %3, i32 0, i32 2
  store i32 %76, ptr %77, align 4, !tbaa !187
  %78 = getelementptr inbounds nuw %struct._cairo_rectangle_int, ptr %5, i32 0, i32 1
  %79 = load i32, ptr %78, align 4, !tbaa !194
  %80 = getelementptr inbounds nuw %struct._GdkWindowAttr, ptr %3, i32 0, i32 3
  store i32 %79, ptr %80, align 8, !tbaa !195
  %81 = getelementptr inbounds nuw %struct._cairo_rectangle_int, ptr %5, i32 0, i32 2
  %82 = load i32, ptr %81, align 4, !tbaa !196
  %83 = getelementptr inbounds nuw %struct._GdkWindowAttr, ptr %3, i32 0, i32 4
  store i32 %82, ptr %83, align 4, !tbaa !197
  %84 = getelementptr inbounds nuw %struct._cairo_rectangle_int, ptr %5, i32 0, i32 3
  %85 = load i32, ptr %84, align 4, !tbaa !198
  %86 = getelementptr inbounds nuw %struct._GdkWindowAttr, ptr %3, i32 0, i32 5
  store i32 %85, ptr %86, align 8, !tbaa !199
  %87 = getelementptr inbounds nuw %struct._GdkWindowAttr, ptr %3, i32 0, i32 6
  store i32 0, ptr %87, align 4, !tbaa !200
  %88 = getelementptr inbounds nuw %struct._GdkWindowAttr, ptr %3, i32 0, i32 8
  store i32 2, ptr %88, align 8, !tbaa !201
  %89 = load ptr, ptr %2, align 8, !tbaa !158
  %90 = call i32 @gtk_widget_get_events(ptr noundef %89)
  %91 = or i32 %90, 2
  %92 = or i32 %91, 256
  %93 = or i32 %92, 512
  %94 = or i32 %93, 4
  %95 = getelementptr inbounds nuw %struct._GdkWindowAttr, ptr %3, i32 0, i32 1
  store i32 %94, ptr %95, align 8, !tbaa !202
  %96 = load ptr, ptr %2, align 8, !tbaa !158
  %97 = call ptr @gtk_widget_get_visual(ptr noundef %96)
  %98 = getelementptr inbounds nuw %struct._GdkWindowAttr, ptr %3, i32 0, i32 7
  store ptr %97, ptr %98, align 8, !tbaa !203
  store i32 44, ptr %4, align 4, !tbaa !3
  %99 = load ptr, ptr %2, align 8, !tbaa !158
  %100 = load ptr, ptr %2, align 8, !tbaa !158
  %101 = call ptr @gtk_widget_get_parent_window(ptr noundef %100)
  %102 = load i32, ptr %4, align 4, !tbaa !3
  %103 = call ptr @gdk_window_new(ptr noundef %101, ptr noundef %3, i32 noundef %102)
  call void @gtk_widget_set_window(ptr noundef %99, ptr noundef %103)
  %104 = load ptr, ptr %2, align 8, !tbaa !158
  %105 = load ptr, ptr %2, align 8, !tbaa !158
  %106 = call ptr @gtk_widget_get_style(ptr noundef %105)
  %107 = load ptr, ptr %2, align 8, !tbaa !158
  %108 = call ptr @gtk_widget_get_window(ptr noundef %107)
  %109 = call ptr @gtk_style_attach(ptr noundef %106, ptr noundef %108)
  call void @gtk_widget_set_style(ptr noundef %104, ptr noundef %109)
  %110 = load ptr, ptr %2, align 8, !tbaa !158
  %111 = call ptr @gtk_widget_get_window(ptr noundef %110)
  %112 = load ptr, ptr %2, align 8, !tbaa !158
  call void @gdk_window_set_user_data(ptr noundef %111, ptr noundef %112)
  %113 = load ptr, ptr %2, align 8, !tbaa !158
  %114 = call ptr @gtk_widget_get_style(ptr noundef %113)
  %115 = load ptr, ptr %2, align 8, !tbaa !158
  %116 = call ptr @gtk_widget_get_window(ptr noundef %115)
  call void @gtk_style_set_background(ptr noundef %114, ptr noundef %116, i32 noundef 1)
  store i32 0, ptr %8, align 4
  br label %117

117:                                              ; preds = %73, %70, %28
  call void @llvm.lifetime.end.p0(i64 16, ptr %5) #3
  call void @llvm.lifetime.end.p0(i64 4, ptr %4) #3
  call void @llvm.lifetime.end.p0(i64 80, ptr %3) #3
  %118 = load i32, ptr %8, align 4
  switch i32 %118, label %120 [
    i32 0, label %119
    i32 1, label %119
  ]

119:                                              ; preds = %117, %117
  ret void

120:                                              ; preds = %117
  unreachable
}