; Function Attrs: mustprogress uwtable
define internal void @_ZL21cvImageWidget_realizeP10_GtkWidget(ptr noundef %0) #3 {
  %2 = alloca %struct._GdkWindowAttr, align 8
  %3 = alloca %struct._cairo_rectangle_int, align 4
  call void @llvm.lifetime.start.p0(i64 80, ptr nonnull %2) #31
  call void @llvm.lifetime.start.p0(i64 16, ptr nonnull %3) #31
  call void @gtk_widget_get_allocation(ptr noundef %0, ptr noundef nonnull %3)
  %.not = icmp eq ptr %0, null
  br i1 %.not, label %4, label %5, !prof !60

4:                                                ; preds = %1
  call void @g_return_if_fail_warning(ptr noundef null, ptr noundef nonnull @__PRETTY_FUNCTION__._ZL21cvImageWidget_realizeP10_GtkWidget, ptr noundef nonnull @.str.20)
  br label %45

5:                                                ; preds = %1
  %6 = load i64, ptr @_ZZ22cvImageWidget_get_typevE10image_type, align 8, !tbaa !3
  %.not.i = icmp eq i64 %6, 0
  br i1 %.not.i, label %7, label %_Z22cvImageWidget_get_typev.exit

7:                                                ; preds = %5
  %8 = tail call i64 @gtk_widget_get_type() #30
  %9 = call i64 @g_type_register_static_simple(i64 noundef %8, ptr noundef nonnull @.str.2, i32 noundef 824, ptr noundef nonnull @_ZL24cvImageWidget_class_initPvS_, i32 noundef 56, ptr noundef nonnull @_ZL18cvImageWidget_initP14_GTypeInstancePv, i32 noundef 0)
  store i64 %9, ptr @_ZZ22cvImageWidget_get_typevE10image_type, align 8, !tbaa !3
  br label %_Z22cvImageWidget_get_typev.exit

_Z22cvImageWidget_get_typev.exit:                 ; preds = %5, %7
  %10 = phi i64 [ %9, %7 ], [ %6, %5 ]
  %11 = load ptr, ptr %0, align 8, !tbaa !172
  %.not32 = icmp eq ptr %11, null
  br i1 %.not32, label %15, label %12

12:                                               ; preds = %_Z22cvImageWidget_get_typev.exit
  %13 = load i64, ptr %11, align 8, !tbaa !173
  %14 = icmp eq i64 %13, %10
  br i1 %14, label %.critedge, label %15

15:                                               ; preds = %12, %_Z22cvImageWidget_get_typev.exit
  %16 = call i32 @g_type_check_instance_is_a(ptr noundef nonnull %0, i64 noundef %10) #36
  %17 = icmp eq i32 %16, 0
  br i1 %17, label %18, label %.critedge, !prof !60

18:                                               ; preds = %15
  call void @g_return_if_fail_warning(ptr noundef null, ptr noundef nonnull @__PRETTY_FUNCTION__._ZL21cvImageWidget_realizeP10_GtkWidget, ptr noundef nonnull @.str.21)
  br label %45

.critedge:                                        ; preds = %12, %15
  call void @gtk_widget_set_realized(ptr noundef nonnull %0, i32 noundef 1)
  %19 = load i32, ptr %3, align 4, !tbaa !174
  %20 = getelementptr inbounds nuw i8, ptr %2, i64 12
  store i32 %19, ptr %20, align 4, !tbaa !176
  %21 = getelementptr inbounds nuw i8, ptr %3, i64 4
  %22 = load i32, ptr %21, align 4, !tbaa !183
  %23 = getelementptr inbounds nuw i8, ptr %2, i64 16
  store i32 %22, ptr %23, align 8, !tbaa !184
  %24 = getelementptr inbounds nuw i8, ptr %3, i64 8
  %25 = load i32, ptr %24, align 4, !tbaa !185
  %26 = getelementptr inbounds nuw i8, ptr %2, i64 20
  store i32 %25, ptr %26, align 4, !tbaa !186
  %27 = getelementptr inbounds nuw i8, ptr %3, i64 12
  %28 = load i32, ptr %27, align 4, !tbaa !187
  %29 = getelementptr inbounds nuw i8, ptr %2, i64 24
  store i32 %28, ptr %29, align 8, !tbaa !188
  %30 = getelementptr inbounds nuw i8, ptr %2, i64 28
  store i32 0, ptr %30, align 4, !tbaa !189
  %31 = getelementptr inbounds nuw i8, ptr %2, i64 40
  store i32 2, ptr %31, align 8, !tbaa !190
  %32 = call i32 @gtk_widget_get_events(ptr noundef nonnull %0)
  %33 = or i32 %32, 774
  %34 = getelementptr inbounds nuw i8, ptr %2, i64 8
  store i32 %33, ptr %34, align 8, !tbaa !191
  %35 = call ptr @gtk_widget_get_visual(ptr noundef nonnull %0)
  %36 = getelementptr inbounds nuw i8, ptr %2, i64 32
  store ptr %35, ptr %36, align 8, !tbaa !192
  %37 = call ptr @gtk_widget_get_parent_window(ptr noundef nonnull %0)
  %38 = call ptr @gdk_window_new(ptr noundef %37, ptr noundef nonnull %2, i32 noundef 44)
  call void @gtk_widget_set_window(ptr noundef nonnull %0, ptr noundef %38)
  %39 = call ptr @gtk_widget_get_style(ptr noundef nonnull %0)
  %40 = call ptr @gtk_widget_get_window(ptr noundef nonnull %0)
  %41 = call ptr @gtk_style_attach(ptr noundef %39, ptr noundef %40)
  call void @gtk_widget_set_style(ptr noundef nonnull %0, ptr noundef %41)
  %42 = call ptr @gtk_widget_get_window(ptr noundef nonnull %0)
  call void @gdk_window_set_user_data(ptr noundef %42, ptr noundef nonnull %0)
  %43 = call ptr @gtk_widget_get_style(ptr noundef nonnull %0)
  %44 = call ptr @gtk_widget_get_window(ptr noundef nonnull %0)
  call void @gtk_style_set_background(ptr noundef %43, ptr noundef %44, i32 noundef 1)
  br label %45

45:                                               ; preds = %.critedge, %18, %4
  call void @llvm.lifetime.end.p0(i64 16, ptr nonnull %3) #31
  call void @llvm.lifetime.end.p0(i64 80, ptr nonnull %2) #31
  ret void
}